target datalayout = "e-m:e-p270:32:32-p271:32:32-p272:64:64-i64:64-i128:128-f80:128-n8:16:32:64-S128"
target triple = "x86_64-pc-linux-gnu"

@.str.1 = private unnamed_addr constant [50 x i8] c"../openssl/providers/implementations/kem/ec_kem.c\00", align 1
@__func__.generate_ecdhkm = private unnamed_addr constant [16 x i8] c"generate_ecdhkm\00", align 1
@.str.9 = private unnamed_addr constant [17 x i8] c"secretsz invalid\00", align 1

; Function Attrs: nounwind uwtable
define internal i32 @check_publickey(ptr noundef %0) #0 {
  %2 = alloca i32, align 4
  %3 = alloca ptr, align 8
  %4 = alloca i32, align 4
  %5 = alloca ptr, align 8
  %6 = alloca i32, align 4
  store ptr %0, ptr %3, align 8, !tbaa !3
  call void @llvm.lifetime.start.p0(i64 4, ptr %4) #5
  store i32 0, ptr %4, align 4, !tbaa !14
  call void @llvm.lifetime.start.p0(i64 8, ptr %5) #5
  %7 = load ptr, ptr %3, align 8, !tbaa !3
  %8 = call ptr @ossl_ec_key_get_libctx(ptr noundef %7)
  %9 = call ptr @BN_CTX_new_ex(ptr noundef %8)
  store ptr %9, ptr %5, align 8, !tbaa !46
  %10 = load ptr, ptr %5, align 8, !tbaa !46
  %11 = icmp eq ptr %10, null
  br i1 %11, label %12, label %13

12:                                               ; preds = %1
  store i32 0, ptr %2, align 4
  store i32 1, ptr %6, align 4
  br label %19

13:                                               ; preds = %1
  %14 = load ptr, ptr %3, align 8, !tbaa !3
  %15 = load ptr, ptr %5, align 8, !tbaa !46
  %16 = call i32 @ossl_ec_key_public_check(ptr noundef %14, ptr noundef %15)
  store i32 %16, ptr %4, align 4, !tbaa !14
  %17 = load ptr, ptr %5, align 8, !tbaa !46
  call void @BN_CTX_free(ptr noundef %17)
  %18 = load i32, ptr %4, align 4, !tbaa !14
  store i32 %18, ptr %2, align 4
  store i32 1, ptr %6, align 4
  br label %19

19:                                               ; preds = %13, %12
  call void @llvm.lifetime.end.p0(i64 8, ptr %5) #5
  call void @llvm.lifetime.end.p0(i64 4, ptr %4) #5
  %20 = load i32, ptr %2, align 4
  ret i32 %20
}

; Function Attrs: nounwind uwtable
define internal i32 @generate_ecdhkm(ptr noundef %0, ptr noundef %1, ptr noundef %2, i64 noundef %3, i32 noundef %4) #0 {
  %6 = alloca i32, align 4
  %7 = alloca ptr, align 8
  %8 = alloca ptr, align 8
  %9 = alloca ptr, align 8
  %10 = alloca i64, align 8
  %11 = alloca i32, align 4
  %12 = alloca ptr, align 8
  %13 = alloca i64, align 8
  %14 = alloca i32, align 4
  store ptr %0, ptr %7, align 8, !tbaa !3
  store ptr %1, ptr %8, align 8, !tbaa !3
  store ptr %2, ptr %9, align 8, !tbaa !10
  store i64 %3, ptr %10, align 8, !tbaa !12
  store i32 %4, ptr %11, align 4, !tbaa !14
  call void @llvm.lifetime.start.p0(i64 8, ptr %12) #5
  %15 = load ptr, ptr %7, align 8, !tbaa !3
  %16 = call ptr @EC_KEY_get0_group(ptr noundef %15)
  store ptr %16, ptr %12, align 8, !tbaa !29
  call void @llvm.lifetime.start.p0(i64 8, ptr %13) #5
  %17 = load ptr, ptr %12, align 8, !tbaa !29
  %18 = call i32 @EC_GROUP_get_degree(ptr noundef %17)
  %19 = add nsw i32 %18, 7
  %20 = sdiv i32 %19, 8
  %21 = sext i32 %20 to i64
  store i64 %21, ptr %13, align 8, !tbaa !12
  %22 = load i64, ptr %13, align 8, !tbaa !12
  %23 = load i32, ptr %11, align 4, !tbaa !14
  %24 = zext i32 %23 to i64
  %25 = icmp ne i64 %22, %24
  br i1 %25, label %30, label %26

26:                                               ; preds = %5
  %27 = load i64, ptr %13, align 8, !tbaa !12
  %28 = load i64, ptr %10, align 8, !tbaa !12
  %29 = icmp ugt i64 %27, %28
  br i1 %29, label %30, label %31

30:                                               ; preds = %26, %5
  call void @ERR_new()
  call void @ERR_set_debug(ptr noundef @.str.1, i32 noundef 528, ptr noundef @__func__.generate_ecdhkm)
  call void (i32, i32, ptr, ...) @ERR_set_error(i32 noundef 57, i32 noundef 142, ptr noundef @.str.9)
  store i32 0, ptr %6, align 4
  store i32 1, ptr %14, align 4
  br label %45

31:                                               ; preds = %26
  %32 = load ptr, ptr %8, align 8, !tbaa !3
  %33 = call i32 @check_publickey(ptr noundef %32)
  %34 = icmp ne i32 %33, 0
  br i1 %34, label %36, label %35

35:                                               ; preds = %31
  store i32 0, ptr %6, align 4
  store i32 1, ptr %14, align 4
  br label %45

36:                                               ; preds = %31
  %37 = load ptr, ptr %9, align 8, !tbaa !10
  %38 = load i64, ptr %13, align 8, !tbaa !12
  %39 = load ptr, ptr %8, align 8, !tbaa !3
  %40 = call ptr @EC_KEY_get0_public_key(ptr noundef %39)
  %41 = load ptr, ptr %7, align 8, !tbaa !3
  %42 = call i32 @ECDH_compute_key(ptr noundef %37, i64 noundef %38, ptr noundef %40, ptr noundef %41, ptr noundef null)
  %43 = icmp sgt i32 %42, 0
  %44 = zext i1 %43 to i32
  store i32 %44, ptr %6, align 4
  store i32 1, ptr %14, align 4
  br label %45

45:                                               ; preds = %36, %35, %30
  call void @llvm.lifetime.end.p0(i64 8, ptr %13) #5
  call void @llvm.lifetime.end.p0(i64 8, ptr %12) #5
  %46 = load i32, ptr %6, align 4
  ret i32 %46
}