; Function Attrs: nounwind uwtable
define internal fastcc range(i32 0, 2) i32 @generate_ecdhkm(ptr noundef %0, ptr noundef %1, ptr noundef nonnull %2, i64 noundef %3, i32 noundef %4) unnamed_addr #0 {
  %6 = tail call ptr @EC_KEY_get0_group(ptr noundef %0) #5
  %7 = tail call i32 @EC_GROUP_get_degree(ptr noundef %6) #5
  %8 = add nsw i32 %7, 7
  %9 = sdiv i32 %8, 8
  %10 = sext i32 %9 to i64
  %11 = zext i32 %4 to i64
  %.not = icmp ne i64 %10, %11
  %12 = icmp ult i64 %3, %10
  %or.cond = or i1 %.not, %12
  br i1 %or.cond, label %13, label %14

13:                                               ; preds = %5
  tail call void @ERR_new() #5
  tail call void @ERR_set_debug(ptr noundef nonnull @.str.1, i32 noundef 528, ptr noundef nonnull @__func__.generate_ecdhkm) #5
  tail call void (i32, i32, ptr, ...) @ERR_set_error(i32 noundef 57, i32 noundef 142, ptr noundef nonnull @.str.9) #5
  br label %check_publickey.exit.thread

14:                                               ; preds = %5
  %15 = tail call ptr @ossl_ec_key_get_libctx(ptr noundef %1) #5
  %16 = tail call ptr @BN_CTX_new_ex(ptr noundef %15) #5
  %17 = icmp eq ptr %16, null
  br i1 %17, label %check_publickey.exit.thread, label %check_publickey.exit

check_publickey.exit:                             ; preds = %14
  %18 = tail call i32 @ossl_ec_key_public_check(ptr noundef %1, ptr noundef nonnull %16) #5
  tail call void @BN_CTX_free(ptr noundef nonnull %16) #5
  %.not12 = icmp eq i32 %18, 0
  br i1 %.not12, label %check_publickey.exit.thread, label %19

19:                                               ; preds = %check_publickey.exit
  %20 = tail call ptr @EC_KEY_get0_public_key(ptr noundef %1) #5
  %21 = tail call i32 @ECDH_compute_key(ptr noundef nonnull %2, i64 noundef %10, ptr noundef %20, ptr noundef %0, ptr noundef null) #5
  %22 = icmp sgt i32 %21, 0
  %23 = zext i1 %22 to i32
  br label %check_publickey.exit.thread

check_publickey.exit.thread:                      ; preds = %14, %check_publickey.exit, %19, %13
  %.0 = phi i32 [ 0, %13 ], [ %23, %19 ], [ 0, %check_publickey.exit ], [ 0, %14 ]
  ret i32 %.0
}